target datalayout = "e-m:e-p270:32:32-p271:32:32-p272:64:64-i64:64-i128:128-f80:128-n8:16:32:64-S128"
target triple = "x86_64-pc-linux-gnu"

; Function Attrs: nounwind uwtable
define internal i64 @HUF_getNbBits(i64 noundef %0) #0 {
  %2 = alloca i64, align 8
  store i64 %0, ptr %2, align 8, !tbaa !8
  %3 = load i64, ptr %2, align 8, !tbaa !8
  %4 = and i64 %3, 255
  ret i64 %4
}

; Function Attrs: nounwind uwtable
define dso_local i64 @HUF_estimateCompressedSize(ptr noundef %0, ptr noundef %1, i32 noundef %2) #0 {
  %4 = alloca ptr, align 8
  %5 = alloca ptr, align 8
  %6 = alloca i32, align 4
  %7 = alloca ptr, align 8
  %8 = alloca i64, align 8
  %9 = alloca i32, align 4
  store ptr %0, ptr %4, align 8, !tbaa !10
  store ptr %1, ptr %5, align 8, !tbaa !21
  store i32 %2, ptr %6, align 4, !tbaa !12
  call void @llvm.lifetime.start.p0(i64 8, ptr %7) #8
  %10 = load ptr, ptr %4, align 8, !tbaa !10
  %11 = getelementptr inbounds i64, ptr %10, i64 1
  store ptr %11, ptr %7, align 8, !tbaa !10
  call void @llvm.lifetime.start.p0(i64 8, ptr %8) #8
  store i64 0, ptr %8, align 8, !tbaa !8
  call void @llvm.lifetime.start.p0(i64 4, ptr %9) #8
  store i32 0, ptr %9, align 4, !tbaa !12
  br label %12

12:                                               ; preds = %32, %3
  %13 = load i32, ptr %9, align 4, !tbaa !12
  %14 = load i32, ptr %6, align 4, !tbaa !12
  %15 = icmp sle i32 %13, %14
  br i1 %15, label %16, label %35

16:                                               ; preds = %12
  %17 = load ptr, ptr %7, align 8, !tbaa !10
  %18 = load i32, ptr %9, align 4, !tbaa !12
  %19 = sext i32 %18 to i64
  %20 = getelementptr inbounds i64, ptr %17, i64 %19
  %21 = load i64, ptr %20, align 8, !tbaa !8
  %22 = call i64 @HUF_getNbBits(i64 noundef %21)
  %23 = load ptr, ptr %5, align 8, !tbaa !21
  %24 = load i32, ptr %9, align 4, !tbaa !12
  %25 = sext i32 %24 to i64
  %26 = getelementptr inbounds i32, ptr %23, i64 %25
  %27 = load i32, ptr %26, align 4, !tbaa !12
  %28 = zext i32 %27 to i64
  %29 = mul i64 %22, %28
  %30 = load i64, ptr %8, align 8, !tbaa !8
  %31 = add i64 %30, %29
  store i64 %31, ptr %8, align 8, !tbaa !8
  br label %32

32:                                               ; preds = %16
  %33 = load i32, ptr %9, align 4, !tbaa !12
  %34 = add nsw i32 %33, 1
  store i32 %34, ptr %9, align 4, !tbaa !12
  br label %12, !llvm.loop !61

35:                                               ; preds = %12
  %36 = load i64, ptr %8, align 8, !tbaa !8
  %37 = lshr i64 %36, 3
  call void @llvm.lifetime.end.p0(i64 4, ptr %9) #8
  call void @llvm.lifetime.end.p0(i64 8, ptr %8) #8
  call void @llvm.lifetime.end.p0(i64 8, ptr %7) #8
  ret i64 %37
}